target datalayout = "e-m:e-p270:32:32-p271:32:32-p272:64:64-i64:64-i128:128-f80:128-n8:16:32:64-S128"
target triple = "x86_64-pc-linux-gnu"

%class.Compile = type <{ %class.Phase, i32, %class.Options, [4 x i8], ptr, i32, [4 x i8], ptr, ptr, ptr, ptr, ptr, i32, i32, i32, [4 x i8], i64, i8, i8, [2 x i8], i32, i8, i8, i8, i8, i8, i8, i8, i8, i8, [3 x i8], i32, i8, [3 x i8], [30 x i32], i8, [3 x i8], i32, i8, i8, i8, i8, i8, i8, i8, i8, i8, i8, i8, i8, i8, [3 x i8], i32, i32, [4 x i8], %class.Arena, ptr, ptr, ptr, ptr, %class.CHeapStringHolder, ptr, %class.GrowableArray, %class.GrowableArray.0, %class.GrowableArray.3, %class.GrowableArray.0, %class.GrowableArray.0, %class.GrowableArray.0, %class.GrowableArray.6, %class.GrowableArray.9, ptr, i32, i32, %class.VectorSet, %class.Arena, %class.Arena, ptr, ptr, ptr, ptr, ptr, ptr, ptr, ptr, ptr, %class.Arena, ptr, ptr, %class.CloneMap, i64, ptr, ptr, ptr, i32, i32, [64 x %"struct.Compile::AliasCacheEntry"], ptr, ptr, ptr, ptr, %class.GrowableArray, %class.GrowableArray, %class.GrowableArray, %class.GrowableArray, i32, i32, i8, [7 x i8], ptr, ptr, i32, [4 x i8], ptr, ptr, ptr, i32, i32, ptr, ptr, %class.RegMask, ptr, ptr, i32, [4 x i8], ptr, %class.TimeInstant, i32, [4 x i8] }>
%class.Phase = type { i32, ptr }
%class.Options = type { i8, i8, i8, i8, i8, i8, i8, i8 }
%class.CHeapStringHolder = type { ptr }
%class.GrowableArray.3 = type { %class.GrowableArrayWithAllocator.4, %class.GrowableArrayMetadata }
%class.GrowableArrayWithAllocator.4 = type { %class.GrowableArrayView.5 }
%class.GrowableArrayView.5 = type { %class.GrowableArrayBase, ptr }
%class.GrowableArrayBase = type { i32, i32 }
%class.GrowableArrayMetadata = type { i64 }
%class.GrowableArray.0 = type { %class.GrowableArrayWithAllocator.1, %class.GrowableArrayMetadata }
%class.GrowableArrayWithAllocator.1 = type { %class.GrowableArrayView.2 }
%class.GrowableArrayView.2 = type { %class.GrowableArrayBase, ptr }
%class.GrowableArray.6 = type { %class.GrowableArrayWithAllocator.7, %class.GrowableArrayMetadata }
%class.GrowableArrayWithAllocator.7 = type { %class.GrowableArrayView.8 }
%class.GrowableArrayView.8 = type { %class.GrowableArrayBase, ptr }
%class.GrowableArray.9 = type { %class.GrowableArrayWithAllocator.10, %class.GrowableArrayMetadata }
%class.GrowableArrayWithAllocator.10 = type { %class.GrowableArrayView.11 }
%class.GrowableArrayView.11 = type { %class.GrowableArrayBase, ptr }
%class.VectorSet = type { i32, ptr, i32, ptr }
%class.Arena = type { i8, i8, i64, ptr, ptr, ptr, ptr }
%class.CloneMap = type <{ i8, [7 x i8], ptr, i32, [4 x i8] }>
%"struct.Compile::AliasCacheEntry" = type { ptr, i32 }
%class.GrowableArray = type { %class.GrowableArrayWithAllocator, %class.GrowableArrayMetadata }
%class.GrowableArrayWithAllocator = type { %class.GrowableArrayView }
%class.GrowableArrayView = type { %class.GrowableArrayBase, ptr }
%class.RegMask = type { %union.anon, i32, i32 }
%union.anon = type { [11 x i64] }
%class.TimeInstant = type { %class.CompositeCounterRepresentation }
%class.CompositeCounterRepresentation = type { %class.Representation }
%class.Representation = type { %class.PairRep }
%class.PairRep = type { i64, i64 }
%class.Node = type <{ ptr, ptr, ptr, i32, i32, i32, i32, i32, i32, i32, [4 x i8] }>
%class.Node_Array = type { ptr, i32, ptr }
%class.Node_List = type <{ %class.Node_Array, i32, [4 x i8] }>
%class.MultiNode.base = type { %class.Node.base }
%class.Node.base = type <{ ptr, ptr, ptr, i32, i32, i32, i32, i32, i32, i32 }>
%class.ReplacedNodes = type { ptr }
%class.CallNode = type { %class.SafePointNode.base, ptr, ptr, float, ptr, ptr }
%class.SafePointNode.base = type <{ %class.MultiNode.base, [4 x i8], ptr, ptr, %class.ReplacedNodes, i8 }>
%class.BoxLockNode = type <{ %class.Node.base, i32, %class.RegMask, i32, [4 x i8] }>
%class.AbstractLockNode = type <{ %class.CallNode, i32, [4 x i8] }>

; Function Attrs: mustprogress nounwind uwtable
define linkonce_odr hidden noundef ptr @_ZNK4Node2inEj(ptr noundef nonnull align 8 dereferenceable(52) %0, i32 noundef %1) #1 comdat align 2 {
  %3 = alloca ptr, align 8
  %4 = alloca i32, align 4
  store ptr %0, ptr %3, align 8
  store i32 %1, ptr %4, align 4
  %5 = load ptr, ptr %3, align 8
  %6 = getelementptr inbounds %class.Node, ptr %5, i32 0, i32 1
  %7 = load ptr, ptr %6, align 8
  %8 = load i32, ptr %4, align 4
  %9 = zext i32 %8 to i64
  %10 = getelementptr inbounds ptr, ptr %7, i64 %9
  %11 = load ptr, ptr %10, align 8
  ret ptr %11
}

; Function Attrs: mustprogress nounwind uwtable
define linkonce_odr hidden noundef i32 @_ZNK17GrowableArrayBase6lengthEv(ptr noundef nonnull align 4 dereferenceable(8) %0) #1 comdat align 2 {
  %2 = alloca ptr, align 8
  store ptr %0, ptr %2, align 8
  %3 = load ptr, ptr %2, align 8
  %4 = getelementptr inbounds %class.GrowableArrayBase, ptr %3, i32 0, i32 0
  %5 = load i32, ptr %4, align 4
  ret i32 %5
}

; Function Attrs: mustprogress nounwind uwtable
define linkonce_odr hidden void @_ZN11BoxLockNode14set_unbalancedEv(ptr noundef nonnull align 8 dereferenceable(156) %0) #1 comdat align 2 {
  %2 = alloca ptr, align 8
  store ptr %0, ptr %2, align 8
  %3 = load ptr, ptr %2, align 8
  %4 = getelementptr inbounds %class.BoxLockNode, ptr %3, i32 0, i32 3
  store i32 4, ptr %4, align 8
  ret void
}

; Function Attrs: mustprogress nounwind uwtable
define linkonce_odr hidden noundef zeroext i1 @_ZNK16AbstractLockNode12is_coarsenedEv(ptr noundef nonnull align 8 dereferenceable(132) %0) #1 comdat align 2 {
  %2 = alloca ptr, align 8
  store ptr %0, ptr %2, align 8
  %3 = load ptr, ptr %2, align 8
  %4 = getelementptr inbounds %class.AbstractLockNode, ptr %3, i32 0, i32 1
  %5 = load i32, ptr %4, align 8
  %6 = icmp eq i32 %5, 2
  ret i1 %6
}

; Function Attrs: mustprogress nounwind uwtable
define linkonce_odr hidden noundef ptr @_ZNK4Node10as_BoxLockEv(ptr noundef nonnull align 8 dereferenceable(52) %0) #1 comdat align 2 {
  %2 = alloca ptr, align 8
  store ptr %0, ptr %2, align 8
  %3 = load ptr, ptr %2, align 8
  ret ptr %3
}

; Function Attrs: mustprogress nounwind uwtable
define linkonce_odr hidden noundef ptr @_ZNK16AbstractLockNode8box_nodeEv(ptr noundef nonnull align 8 dereferenceable(132) %0) #1 comdat align 2 {
  %2 = alloca ptr, align 8
  store ptr %0, ptr %2, align 8
  %3 = load ptr, ptr %2, align 8
  %4 = call noundef ptr @_ZNK4Node2inEj(ptr noundef nonnull align 8 dereferenceable(52) %3, i32 noundef 6)
  ret ptr %4
}

; Function Attrs: mustprogress nounwind uwtable
define linkonce_odr hidden noundef ptr @_ZNK4Node15as_AbstractLockEv(ptr noundef nonnull align 8 dereferenceable(52) %0) #1 comdat align 2 {
  %2 = alloca ptr, align 8
  store ptr %0, ptr %2, align 8
  %3 = load ptr, ptr %2, align 8
  ret ptr %3
}

; Function Attrs: mustprogress nounwind uwtable
define linkonce_odr hidden noundef ptr @_ZNK10Node_Array2atEj(ptr noundef nonnull align 8 dereferenceable(24) %0, i32 noundef %1) #1 comdat align 2 {
  %3 = alloca ptr, align 8
  %4 = alloca i32, align 4
  store ptr %0, ptr %3, align 8
  store i32 %1, ptr %4, align 4
  %5 = load ptr, ptr %3, align 8
  %6 = getelementptr inbounds %class.Node_Array, ptr %5, i32 0, i32 2
  %7 = load ptr, ptr %6, align 8
  %8 = load i32, ptr %4, align 4
  %9 = zext i32 %8 to i64
  %10 = getelementptr inbounds ptr, ptr %7, i64 %9
  %11 = load ptr, ptr %10, align 8
  ret ptr %11
}

; Function Attrs: mustprogress nounwind uwtable
define linkonce_odr hidden noundef i32 @_ZNK9Node_List4sizeEv(ptr noundef nonnull align 8 dereferenceable(28) %0) #1 comdat align 2 {
  %2 = alloca ptr, align 8
  store ptr %0, ptr %2, align 8
  %3 = load ptr, ptr %2, align 8
  %4 = getelementptr inbounds %class.Node_List, ptr %3, i32 0, i32 1
  %5 = load i32, ptr %4, align 8
  ret i32 %5
}

; Function Attrs: mustprogress nounwind uwtable
define linkonce_odr hidden noundef nonnull align 8 dereferenceable(8) ptr @_ZNK17GrowableArrayViewIP9Node_ListE2atEi(ptr noundef nonnull align 8 dereferenceable(16) %0, i32 noundef %1) #1 comdat align 2 {
  %3 = alloca ptr, align 8
  %4 = alloca i32, align 4
  store ptr %0, ptr %3, align 8
  store i32 %1, ptr %4, align 4
  %5 = load ptr, ptr %3, align 8
  %6 = getelementptr inbounds %class.GrowableArrayView.11, ptr %5, i32 0, i32 1
  %7 = load ptr, ptr %6, align 8
  %8 = load i32, ptr %4, align 4
  %9 = sext i32 %8 to i64
  %10 = getelementptr inbounds ptr, ptr %7, i64 %9
  ret ptr %10
}

; Function Attrs: mustprogress nounwind uwtable
define linkonce_odr hidden noundef i32 @_ZNK7Compile15coarsened_countEv(ptr noundef nonnull align 8 dereferenceable(2316) %0) #1 comdat align 2 {
  %2 = alloca ptr, align 8
  store ptr %0, ptr %2, align 8
  %3 = load ptr, ptr %2, align 8
  %4 = getelementptr inbounds %class.Compile, ptr %3, i32 0, i32 69
  %5 = call noundef i32 @_ZNK17GrowableArrayBase6lengthEv(ptr noundef nonnull align 4 dereferenceable(8) %4)
  ret i32 %5
}

; Function Attrs: mustprogress nounwind uwtable
define hidden void @_ZNK7Compile21mark_unbalanced_boxesEv(ptr noundef nonnull align 8 dereferenceable(2316) %0) #1 align 2 {
  %2 = alloca ptr, align 8
  %3 = alloca i32, align 4
  %4 = alloca i32, align 4
  %5 = alloca ptr, align 8
  %6 = alloca i32, align 4
  %7 = alloca ptr, align 8
  %8 = alloca ptr, align 8
  %9 = alloca i32, align 4
  %10 = alloca ptr, align 8
  store ptr %0, ptr %2, align 8
  %11 = load ptr, ptr %2, align 8
  %12 = call noundef i32 @_ZNK7Compile15coarsened_countEv(ptr noundef nonnull align 8 dereferenceable(2316) %11)
  store i32 %12, ptr %3, align 4
  store i32 0, ptr %4, align 4
  br label %13

13:                                               ; preds = %60, %1
  %14 = load i32, ptr %4, align 4
  %15 = load i32, ptr %3, align 4
  %16 = icmp slt i32 %14, %15
  br i1 %16, label %17, label %63

17:                                               ; preds = %13
  %18 = getelementptr inbounds %class.Compile, ptr %11, i32 0, i32 69
  %19 = load i32, ptr %4, align 4
  %20 = call noundef nonnull align 8 dereferenceable(8) ptr @_ZNK17GrowableArrayViewIP9Node_ListE2atEi(ptr noundef nonnull align 8 dereferenceable(16) %18, i32 noundef %19)
  %21 = load ptr, ptr %20, align 8
  store ptr %21, ptr %5, align 8
  %22 = load ptr, ptr %5, align 8
  %23 = call noundef i32 @_ZNK9Node_List4sizeEv(ptr noundef nonnull align 8 dereferenceable(28) %22)
  store i32 %23, ptr %6, align 4
  %24 = load i32, ptr %6, align 4
  %25 = icmp ugt i32 %24, 0
  br i1 %25, label %26, label %59

26:                                               ; preds = %17
  %27 = load ptr, ptr %5, align 8
  %28 = call noundef ptr @_ZNK10Node_Array2atEj(ptr noundef nonnull align 8 dereferenceable(24) %27, i32 noundef 0)
  %29 = call noundef ptr @_ZNK4Node15as_AbstractLockEv(ptr noundef nonnull align 8 dereferenceable(52) %28)
  store ptr %29, ptr %7, align 8
  %30 = load ptr, ptr %7, align 8
  %31 = call noundef ptr @_ZNK16AbstractLockNode8box_nodeEv(ptr noundef nonnull align 8 dereferenceable(132) %30)
  %32 = call noundef ptr @_ZNK4Node10as_BoxLockEv(ptr noundef nonnull align 8 dereferenceable(52) %31)
  store ptr %32, ptr %8, align 8
  %33 = load ptr, ptr %7, align 8
  %34 = call noundef zeroext i1 @_ZNK16AbstractLockNode12is_coarsenedEv(ptr noundef nonnull align 8 dereferenceable(132) %33)
  br i1 %34, label %35, label %58

35:                                               ; preds = %26
  store i32 1, ptr %9, align 4
  br label %36

36:                                               ; preds = %54, %35
  %37 = load i32, ptr %9, align 4
  %38 = load i32, ptr %6, align 4
  %39 = icmp ult i32 %37, %38
  br i1 %39, label %40, label %57

40:                                               ; preds = %36
  %41 = load ptr, ptr %5, align 8
  %42 = load i32, ptr %9, align 4
  %43 = call noundef ptr @_ZNK10Node_Array2atEj(ptr noundef nonnull align 8 dereferenceable(24) %41, i32 noundef %42)
  %44 = call noundef ptr @_ZNK4Node15as_AbstractLockEv(ptr noundef nonnull align 8 dereferenceable(52) %43)
  %45 = call noundef ptr @_ZNK16AbstractLockNode8box_nodeEv(ptr noundef nonnull align 8 dereferenceable(132) %44)
  %46 = call noundef ptr @_ZNK4Node10as_BoxLockEv(ptr noundef nonnull align 8 dereferenceable(52) %45)
  store ptr %46, ptr %10, align 8
  %47 = load ptr, ptr %8, align 8
  %48 = load ptr, ptr %10, align 8
  %49 = icmp ne ptr %47, %48
  br i1 %49, label %50, label %53

50:                                               ; preds = %40
  %51 = load ptr, ptr %8, align 8
  call void @_ZN11BoxLockNode14set_unbalancedEv(ptr noundef nonnull align 8 dereferenceable(156) %51)
  %52 = load ptr, ptr %10, align 8
  call void @_ZN11BoxLockNode14set_unbalancedEv(ptr noundef nonnull align 8 dereferenceable(156) %52)
  br label %53

53:                                               ; preds = %50, %40
  br label %54

54:                                               ; preds = %53
  %55 = load i32, ptr %9, align 4
  %56 = add i32 %55, 1
  store i32 %56, ptr %9, align 4
  br label %36, !llvm.loop !91

57:                                               ; preds = %36
  br label %58

58:                                               ; preds = %57, %26
  br label %59

59:                                               ; preds = %58, %17
  br label %60

60:                                               ; preds = %59
  %61 = load i32, ptr %4, align 4
  %62 = add nsw i32 %61, 1
  store i32 %62, ptr %4, align 4
  br label %13, !llvm.loop !92

63:                                               ; preds = %13
  ret void
}