; Function Attrs: mustprogress nofree norecurse nosync nounwind memory(readwrite, inaccessiblemem: none) uwtable
define hidden void @_ZNK7Compile21mark_unbalanced_boxesEv(ptr nocapture noundef nonnull readonly align 8 dereferenceable(2316) %0) local_unnamed_addr #2 align 2 {
  %2 = getelementptr inbounds i8, ptr %0, i64 560
  %3 = load i32, ptr %2, align 8
  %4 = icmp sgt i32 %3, 0
  br i1 %4, label %.lr.ph25, label %._crit_edge

.lr.ph25:                                         ; preds = %1
  %5 = getelementptr inbounds i8, ptr %0, i64 568
  %wide.trip.count30 = zext nneg i32 %3 to i64
  br label %6

6:                                                ; preds = %.lr.ph25, %.loopexit
  %indvars.iv27 = phi i64 [ 0, %.lr.ph25 ], [ %indvars.iv.next28, %.loopexit ]
  %7 = load ptr, ptr %5, align 8
  %8 = getelementptr inbounds ptr, ptr %7, i64 %indvars.iv27
  %9 = load ptr, ptr %8, align 8
  %10 = getelementptr inbounds i8, ptr %9, i64 24
  %11 = load i32, ptr %10, align 8
  %.not = icmp eq i32 %11, 0
  br i1 %.not, label %.loopexit, label %12

12:                                               ; preds = %6
  %13 = getelementptr inbounds i8, ptr %9, i64 16
  %14 = load ptr, ptr %13, align 8
  %15 = load ptr, ptr %14, align 8
  %16 = getelementptr inbounds i8, ptr %15, i64 8
  %17 = load ptr, ptr %16, align 8
  %18 = getelementptr inbounds i8, ptr %17, i64 48
  %19 = load ptr, ptr %18, align 8
  %20 = getelementptr inbounds i8, ptr %15, i64 128
  %21 = load i32, ptr %20, align 8
  %22 = icmp eq i32 %21, 2
  %23 = icmp ne i32 %11, 1
  %or.cond = and i1 %22, %23
  br i1 %or.cond, label %.lr.ph, label %.loopexit

.lr.ph:                                           ; preds = %12
  %24 = getelementptr inbounds i8, ptr %19, i64 152
  %wide.trip.count = zext i32 %11 to i64
  br label %25

25:                                               ; preds = %.lr.ph, %35
  %indvars.iv = phi i64 [ 1, %.lr.ph ], [ %indvars.iv.next, %35 ]
  %26 = load ptr, ptr %13, align 8
  %27 = getelementptr inbounds ptr, ptr %26, i64 %indvars.iv
  %28 = load ptr, ptr %27, align 8
  %29 = getelementptr inbounds i8, ptr %28, i64 8
  %30 = load ptr, ptr %29, align 8
  %31 = getelementptr inbounds i8, ptr %30, i64 48
  %32 = load ptr, ptr %31, align 8
  %.not22 = icmp eq ptr %19, %32
  br i1 %.not22, label %35, label %33

33:                                               ; preds = %25
  store i32 4, ptr %24, align 8
  %34 = getelementptr inbounds i8, ptr %32, i64 152
  store i32 4, ptr %34, align 8
  br label %35

35:                                               ; preds = %25, %33
  %indvars.iv.next = add nuw nsw i64 %indvars.iv, 1
  %exitcond.not = icmp eq i64 %indvars.iv.next, %wide.trip.count
  br i1 %exitcond.not, label %.loopexit, label %25, !llvm.loop !99

.loopexit:                                        ; preds = %35, %6, %12
  %indvars.iv.next28 = add nuw nsw i64 %indvars.iv27, 1
  %exitcond31.not = icmp eq i64 %indvars.iv.next28, %wide.trip.count30
  br i1 %exitcond31.not, label %._crit_edge, label %6, !llvm.loop !100

._crit_edge:                                      ; preds = %.loopexit, %1
  ret void
}